target datalayout = "e-m:e-p270:32:32-p271:32:32-p272:64:64-i64:64-i128:128-f80:128-n8:16:32:64-S128"
target triple = "x86_64-pc-linux-gnu"

%class.elapsedTimer = type <{ i64, i64, i8, [7 x i8] }>
%class.CompilerStatistics = type { %"class.CompilerStatistics::Data", %"class.CompilerStatistics::Data", i32, i32 }
%"class.CompilerStatistics::Data" = type { %class.elapsedTimer, i32, i32 }
%class.AbstractCompiler = type { ptr, i32, i32, i8, [7 x i8], %class.CompilerStatistics }

@_ZN13CompileBroker12_initializedE = hidden global i8 0, align 1
@_ZN13CompileBroker10_compilersE = hidden global [2 x ptr] zeroinitializer, align 16

; Function Attrs: mustprogress nounwind uwtable
define linkonce_odr hidden noundef zeroext i1 @_Z13is_c1_compilei(i32 noundef %0) #1 comdat {
  %2 = alloca i32, align 4
  store i32 %0, ptr %2, align 4
  %3 = load i32, ptr %2, align 4
  %4 = icmp sgt i32 %3, 0
  br i1 %4, label %5, label %8

5:                                                ; preds = %1
  %6 = load i32, ptr %2, align 4
  %7 = icmp slt i32 %6, 4
  br label %8

8:                                                ; preds = %5, %1
  %9 = phi i1 [ false, %1 ], [ %7, %5 ]
  ret i1 %9
}

; Function Attrs: mustprogress nounwind uwtable
define linkonce_odr hidden noundef zeroext i1 @_Z13is_c2_compilei(i32 noundef %0) #1 comdat {
  %2 = alloca i32, align 4
  store i32 %0, ptr %2, align 4
  %3 = load i32, ptr %2, align 4
  %4 = icmp eq i32 %3, 4
  ret i1 %4
}

; Function Attrs: mustprogress nounwind uwtable
define linkonce_odr hidden noundef zeroext i1 @_ZNK16AbstractCompiler8is_jvmciEv(ptr noundef nonnull align 8 dereferenceable(96) %0) #1 comdat align 2 {
  %2 = alloca ptr, align 8
  store ptr %0, ptr %2, align 8
  %3 = load ptr, ptr %2, align 8
  %4 = getelementptr inbounds %class.AbstractCompiler, ptr %3, i32 0, i32 3
  %5 = load i8, ptr %4, align 8
  %6 = zext i8 %5 to i32
  %7 = icmp eq i32 %6, 3
  ret i1 %7
}

; Function Attrs: mustprogress nounwind uwtable
define linkonce_odr hidden noundef ptr @_ZN13CompileBroker8compilerEi(i32 noundef %0) #1 comdat align 2 {
  %2 = alloca ptr, align 8
  %3 = alloca i32, align 4
  store i32 %0, ptr %3, align 4
  %4 = load i32, ptr %3, align 4
  %5 = call noundef zeroext i1 @_Z13is_c2_compilei(i32 noundef %4)
  br i1 %5, label %6, label %8

6:                                                ; preds = %1
  %7 = load ptr, ptr getelementptr inbounds ([2 x ptr], ptr @_ZN13CompileBroker10_compilersE, i64 0, i64 1), align 8
  store ptr %7, ptr %2, align 8
  br label %14

8:                                                ; preds = %1
  %9 = load i32, ptr %3, align 4
  %10 = call noundef zeroext i1 @_Z13is_c1_compilei(i32 noundef %9)
  br i1 %10, label %11, label %13

11:                                               ; preds = %8
  %12 = load ptr, ptr @_ZN13CompileBroker10_compilersE, align 16
  store ptr %12, ptr %2, align 8
  br label %14

13:                                               ; preds = %8
  store ptr null, ptr %2, align 8
  br label %14

14:                                               ; preds = %13, %11, %6
  %15 = load ptr, ptr %2, align 8
  ret ptr %15
}

; Function Attrs: mustprogress nounwind uwtable
define hidden noundef ptr @_ZN13CompileBroker14compile_methodERK12methodHandleiiS2_iN11CompileTask13CompileReasonEP10JavaThread(ptr noundef nonnull align 8 dereferenceable(16) %0, i32 noundef %1, i32 noundef %2, ptr noundef nonnull align 8 dereferenceable(16) %3, i32 noundef %4, i32 noundef %5, ptr noundef %6) #1 align 2 {
  %8 = alloca ptr, align 8
  %9 = alloca ptr, align 8
  %10 = alloca i32, align 4
  %11 = alloca i32, align 4
  %12 = alloca ptr, align 8
  %13 = alloca i32, align 4
  %14 = alloca i32, align 4
  %15 = alloca ptr, align 8
  %16 = alloca ptr, align 8
  %17 = alloca ptr, align 8
  %18 = alloca ptr, align 8
  store ptr %0, ptr %9, align 8
  store i32 %1, ptr %10, align 4
  store i32 %2, ptr %11, align 4
  store ptr %3, ptr %12, align 8
  store i32 %4, ptr %13, align 4
  store i32 %5, ptr %14, align 4
  store ptr %6, ptr %15, align 8
  %19 = load i8, ptr @_ZN13CompileBroker12_initializedE, align 1
  %20 = trunc i8 %19 to i1
  br i1 %20, label %21, label %24

21:                                               ; preds = %7
  %22 = load i32, ptr %11, align 4
  %23 = icmp eq i32 %22, 0
  br i1 %23, label %24, label %25

24:                                               ; preds = %21, %7
  store ptr null, ptr %8, align 8
  br label %48

25:                                               ; preds = %21
  %26 = load i32, ptr %11, align 4
  %27 = call noundef ptr @_ZN13CompileBroker8compilerEi(i32 noundef %26)
  store ptr %27, ptr %16, align 8
  %28 = load ptr, ptr %16, align 8
  %29 = call noundef zeroext i1 @_ZNK16AbstractCompiler8is_jvmciEv(ptr noundef nonnull align 8 dereferenceable(96) %28)
  br i1 %29, label %30, label %33

30:                                               ; preds = %25
  %31 = call noundef zeroext i1 @_ZN5JVMCI20can_initialize_JVMCIEv()
  br i1 %31, label %33, label %32

32:                                               ; preds = %30
  store ptr null, ptr %8, align 8
  br label %48

33:                                               ; preds = %30, %25
  %34 = load ptr, ptr %9, align 8
  %35 = load ptr, ptr %16, align 8
  %36 = call noundef ptr @_ZN15DirectivesStack20getMatchingDirectiveERK12methodHandleP16AbstractCompiler(ptr noundef nonnull align 8 dereferenceable(16) %34, ptr noundef %35)
  store ptr %36, ptr %17, align 8
  %37 = load ptr, ptr %9, align 8
  %38 = load i32, ptr %10, align 4
  %39 = load i32, ptr %11, align 4
  %40 = load ptr, ptr %12, align 8
  %41 = load i32, ptr %13, align 4
  %42 = load i32, ptr %14, align 4
  %43 = load ptr, ptr %17, align 8
  %44 = load ptr, ptr %15, align 8
  %45 = call noundef ptr @_ZN13CompileBroker14compile_methodERK12methodHandleiiS2_iN11CompileTask13CompileReasonEP12DirectiveSetP10JavaThread(ptr noundef nonnull align 8 dereferenceable(16) %37, i32 noundef %38, i32 noundef %39, ptr noundef nonnull align 8 dereferenceable(16) %40, i32 noundef %41, i32 noundef %42, ptr noundef %43, ptr noundef %44)
  store ptr %45, ptr %18, align 8
  %46 = load ptr, ptr %17, align 8
  call void @_ZN15DirectivesStack7releaseEP12DirectiveSet(ptr noundef %46)
  %47 = load ptr, ptr %18, align 8
  store ptr %47, ptr %8, align 8
  br label %48

48:                                               ; preds = %33, %32, %24
  %49 = load ptr, ptr %8, align 8
  ret ptr %49
}