; Function Attrs: mustprogress nounwind uwtable
define hidden noundef ptr @_ZN13CompileBroker14compile_methodERK12methodHandleiiS2_iN11CompileTask13CompileReasonEP10JavaThread(ptr noundef nonnull align 8 dereferenceable(16) %0, i32 noundef %1, i32 noundef %2, ptr noundef nonnull align 8 dereferenceable(16) %3, i32 noundef %4, i32 noundef %5, ptr noundef %6) local_unnamed_addr #0 align 2 {
  %8 = load i8, ptr @_ZN13CompileBroker12_initializedE, align 1
  %9 = trunc i8 %8 to i1
  %10 = icmp ne i32 %2, 0
  %or.cond.not = and i1 %10, %9
  br i1 %or.cond.not, label %_ZN13CompileBroker8compilerEi.exit, label %23

_ZN13CompileBroker8compilerEi.exit:               ; preds = %7
  %11 = icmp eq i32 %2, 4
  %12 = load ptr, ptr getelementptr inbounds (i8, ptr @_ZN13CompileBroker10_compilersE, i64 8), align 8
  %13 = icmp ult i32 %2, 4
  %14 = load ptr, ptr @_ZN13CompileBroker10_compilersE, align 16
  %spec.select.i = select i1 %13, ptr %14, ptr null
  %.0.i = select i1 %11, ptr %12, ptr %spec.select.i
  %15 = getelementptr inbounds i8, ptr %.0.i, i64 16
  %16 = load i8, ptr %15, align 8
  %17 = icmp eq i8 %16, 3
  br i1 %17, label %18, label %20

18:                                               ; preds = %_ZN13CompileBroker8compilerEi.exit
  %19 = tail call noundef zeroext i1 @_ZN5JVMCI20can_initialize_JVMCIEv() #20
  br i1 %19, label %20, label %23

20:                                               ; preds = %18, %_ZN13CompileBroker8compilerEi.exit
  %21 = tail call noundef ptr @_ZN15DirectivesStack20getMatchingDirectiveERK12methodHandleP16AbstractCompiler(ptr noundef nonnull align 8 dereferenceable(16) %0, ptr noundef nonnull %.0.i) #20
  %22 = tail call noundef ptr @_ZN13CompileBroker14compile_methodERK12methodHandleiiS2_iN11CompileTask13CompileReasonEP12DirectiveSetP10JavaThread(ptr noundef nonnull align 8 dereferenceable(16) %0, i32 noundef %1, i32 noundef %2, ptr noundef nonnull align 8 dereferenceable(16) %3, i32 noundef %4, i32 noundef %5, ptr noundef %21, ptr noundef %6)
  tail call void @_ZN15DirectivesStack7releaseEP12DirectiveSet(ptr noundef %21) #20
  br label %23

23:                                               ; preds = %18, %7, %20
  %.0 = phi ptr [ %22, %20 ], [ null, %7 ], [ null, %18 ]
  ret ptr %.0
}